#include <math.h>
#include <stdio.h>
#include <stdlib.h>
#include <string.h>

void main()
{
	int n,j,a[100][100],b=0,c,i;
	scanf("%d",&n);
	for(i=0;i<n;i++)
		for(j=0;j<n;j++)
		{
			scanf("%d",&a[i][j]);
			if(a[i][j]==0)
				b++;
		}
	c=(b-4)*(b-4)/16;
	printf("%d",c);	
}


